(dp0
S'cheapest\r\n'
p1
I20
sS'ground_fare\r\n'
p2
I9
sS'flight\r\n'
p3
I0
sS'flight_time\r\n'
p4
I1
sS'ground_service\r\n'
p5
I4
sS'flight+airfare\r\n'
p6
I14
sS'airfare+flight_time\r\n'
p7
I19
sS'airfare\r\n'
p8
I2
sS'airport\r\n'
p9
I5
sS'ground_service+ground_fare\r\n'
p10
I18
sS'flight'
p11
I22
sS'aircraft\r\n'
p12
I3
sS'abbreviation\r\n'
p13
I8
sS'airline\r\n'
p14
I6
sS'aircraft+flight+flight_no\r\n'
p15
I21
sS'capacity\r\n'
p16
I13
sS'airline+flight_no\r\n'
p17
I17
sS'distance\r\n'
p18
I7
sS'flight_no\r\n'
p19
I12
sS'city\r\n'
p20
I11
sS'meal\r\n'
p21
I15
sS'quantity\r\n'
p22
I10
sS'restriction\r\n'
p23
I16
s.