(dp0
S'restriction'
p1
I16
sS'aircraft+flight+flight_no'
p2
I21
sS'flight_no'
p3
I12
sS'abbreviation'
p4
I8
sS'ground_fare'
p5
I9
sS'flight_time'
p6
I1
sS'city'
p7
I11
sS'capacity'
p8
I13
sS'flight+airfare'
p9
I14
sS'ground_service+ground_fare'
p10
I18
sS'flight'
p11
I0
sS'aircraft'
p12
I3
sS'airfare'
p13
I2
sS'distance'
p14
I7
sS'airline+flight_no'
p15
I17
sS'cheapest'
p16
I20
sS'airfare+flight_time'
p17
I19
sS'airport'
p18
I5
sS'airline'
p19
I6
sS'ground_service'
p20
I4
sS'meal'
p21
I15
sS'quantity'
p22
I10
s.